; ModuleID = '16/1210.c'
source_filename = "16/1210.c"
target datalayout = "e-m:e-p270:32:32-p271:32:32-p272:64:64-i64:64-f80:128-n8:16:32:64-S128"
target triple = "x86_64-pc-linux-gnu"

@.str = private unnamed_addr constant [3 x i8] c"%d\00", align 1
@.str.1 = private unnamed_addr constant [11 x i8] c"%d%d%d%d%d\00", align 1
@.str.2 = private unnamed_addr constant [9 x i8] c"%d%d%d%d\00", align 1
@.str.3 = private unnamed_addr constant [7 x i8] c"%d%d%d\00", align 1
@.str.4 = private unnamed_addr constant [5 x i8] c"%d%d\00", align 1

; Function Attrs: noinline nounwind uwtable
define dso_local i32 @main() #0 {
  %1 = alloca i32, align 4
  %2 = alloca i32, align 4
  %3 = alloca i32, align 4
  %4 = alloca i32, align 4
  %5 = alloca i32, align 4
  %6 = alloca i32, align 4
  %7 = alloca i32, align 4
  %8 = alloca i32, align 4
  store i32 0, i32* %1, align 4
  %9 = call i32 (i8*, ...) @__isoc99_scanf(i8* getelementptr inbounds ([3 x i8], [3 x i8]* @.str, i64 0, i64 0), i32* %2)
  %10 = load i32, i32* %2, align 4
  %11 = icmp sge i32 %10, 10000
  br i1 %11, label %12, label %13

12:                                               ; preds = %0
  store i32 5, i32* %8, align 4
  br label %29

13:                                               ; preds = %0
  %14 = load i32, i32* %2, align 4
  %15 = icmp sge i32 %14, 1000
  br i1 %15, label %16, label %17

16:                                               ; preds = %13
  store i32 4, i32* %8, align 4
  br label %28

17:                                               ; preds = %13
  %18 = load i32, i32* %2, align 4
  %19 = icmp sge i32 %18, 100
  br i1 %19, label %20, label %21

20:                                               ; preds = %17
  store i32 3, i32* %8, align 4
  br label %27

21:                                               ; preds = %17
  %22 = load i32, i32* %2, align 4
  %23 = icmp sge i32 %22, 10
  br i1 %23, label %24, label %25

24:                                               ; preds = %21
  store i32 2, i32* %8, align 4
  br label %26

25:                                               ; preds = %21
  store i32 1, i32* %8, align 4
  br label %26

26:                                               ; preds = %25, %24
  br label %27

27:                                               ; preds = %26, %20
  br label %28

28:                                               ; preds = %27, %16
  br label %29

29:                                               ; preds = %28, %12
  %30 = load i32, i32* %2, align 4
  %31 = sdiv i32 %30, 10000
  store i32 %31, i32* %3, align 4
  %32 = load i32, i32* %2, align 4
  %33 = srem i32 %32, 10000
  %34 = sdiv i32 %33, 1000
  store i32 %34, i32* %4, align 4
  %35 = load i32, i32* %2, align 4
  %36 = srem i32 %35, 1000
  %37 = sdiv i32 %36, 100
  store i32 %37, i32* %5, align 4
  %38 = load i32, i32* %2, align 4
  %39 = srem i32 %38, 100
  %40 = sdiv i32 %39, 10
  store i32 %40, i32* %6, align 4
  %41 = load i32, i32* %2, align 4
  %42 = srem i32 %41, 10
  store i32 %42, i32* %7, align 4
  %43 = load i32, i32* %8, align 4
  switch i32 %43, label %69 [
    i32 5, label %44
    i32 4, label %51
    i32 3, label %57
    i32 2, label %62
    i32 1, label %66
  ]

44:                                               ; preds = %29
  %45 = load i32, i32* %7, align 4
  %46 = load i32, i32* %6, align 4
  %47 = load i32, i32* %5, align 4
  %48 = load i32, i32* %4, align 4
  %49 = load i32, i32* %3, align 4
  %50 = call i32 (i8*, ...) @printf(i8* getelementptr inbounds ([11 x i8], [11 x i8]* @.str.1, i64 0, i64 0), i32 %45, i32 %46, i32 %47, i32 %48, i32 %49)
  br label %69

51:                                               ; preds = %29
  %52 = load i32, i32* %7, align 4
  %53 = load i32, i32* %6, align 4
  %54 = load i32, i32* %5, align 4
  %55 = load i32, i32* %4, align 4
  %56 = call i32 (i8*, ...) @printf(i8* getelementptr inbounds ([9 x i8], [9 x i8]* @.str.2, i64 0, i64 0), i32 %52, i32 %53, i32 %54, i32 %55)
  br label %69

57:                                               ; preds = %29
  %58 = load i32, i32* %7, align 4
  %59 = load i32, i32* %6, align 4
  %60 = load i32, i32* %5, align 4
  %61 = call i32 (i8*, ...) @printf(i8* getelementptr inbounds ([7 x i8], [7 x i8]* @.str.3, i64 0, i64 0), i32 %58, i32 %59, i32 %60)
  br label %69

62:                                               ; preds = %29
  %63 = load i32, i32* %7, align 4
  %64 = load i32, i32* %6, align 4
  %65 = call i32 (i8*, ...) @printf(i8* getelementptr inbounds ([5 x i8], [5 x i8]* @.str.4, i64 0, i64 0), i32 %63, i32 %64)
  br label %69

66:                                               ; preds = %29
  %67 = load i32, i32* %7, align 4
  %68 = call i32 (i8*, ...) @printf(i8* getelementptr inbounds ([3 x i8], [3 x i8]* @.str, i64 0, i64 0), i32 %67)
  br label %69

69:                                               ; preds = %29, %66, %62, %57, %51, %44
  %70 = load i32, i32* %1, align 4
  ret i32 %70
}

declare dso_local i32 @__isoc99_scanf(i8*, ...) #1

declare dso_local i32 @printf(i8*, ...) #1


!llvm.module.flags = !{!0}
!llvm.ident = !{!1}

!0 = !{i32 1, !"wchar_size", i32 4}
!1 = !{!"clang version 10.0.0-4ubuntu1 "}
